ARM GAS  /tmp/ccgxTn0s.s 			page 1


   1              		.cpu cortex-m0
   2              		.fpu softvfp
   3              		.eabi_attribute 20, 1	@ Tag_ABI_FP_denormal
   4              		.eabi_attribute 21, 1	@ Tag_ABI_FP_exceptions
   5              		.eabi_attribute 23, 3	@ Tag_ABI_FP_number_model
   6              		.eabi_attribute 24, 1	@ Tag_ABI_align8_needed
   7              		.eabi_attribute 25, 1	@ Tag_ABI_align8_preserved
   8              		.eabi_attribute 26, 1	@ Tag_ABI_enum_size
   9              		.eabi_attribute 30, 4	@ Tag_ABI_optimization_goals
  10              		.eabi_attribute 34, 0	@ Tag_CPU_unaligned_access
  11              		.eabi_attribute 18, 4	@ Tag_ABI_PCS_wchar_t
  12              		.file	"main.c"
  13              	@ GNU C (GNU Tools for ARM Embedded Processors) version 4.8.4 20140725 (release) [ARM/embedded-4_8-
  14              	@	compiled by GNU C version 4.6.3, GMP version 5.0.2, MPFR version 3.1.0-p3, MPC version 0.9
  15              	@ warning: GMP header version 5.0.2 differs from library version 5.1.3.
  16              	@ warning: MPFR header version 3.1.0-p3 differs from library version 3.1.2-p3.
  17              	@ GGC heuristics: --param ggc-min-expand=100 --param ggc-min-heapsize=131072
  18              	@ options passed:  -I .
  19              	@ -I ../../STM32F0-Discovery_FW_V1.0.0/Libraries/CMSIS/ST/STM32F0xx/Include
  20              	@ -I ../../STM32F0-Discovery_FW_V1.0.0/Libraries/CMSIS/Include
  21              	@ -I ../../STM32F0-Discovery_FW_V1.0.0/Libraries/STM32F0xx_StdPeriph_Driver/inc
  22              	@ -I ../../STM32F0-Discovery_FW_V1.0.0/Utilities/STM32F0-Discovery -I ./inc
  23              	@ -imultilib armv6-m -iprefix /usr/bin/../lib/gcc/arm-none-eabi/4.8.4/
  24              	@ -isysroot /usr/bin/../arm-none-eabi -D__USES_INITFINI__ -D STM32F0XX
  25              	@ -D USE_STDPERIPH_DRIVER -D RUN_FROM_FLASH=1 src/main.c -mcpu=cortex-m0
  26              	@ -mthumb -auxbase-strip src/main.o -g -gdwarf-2 -Os -Wall
  27              	@ -Wstrict-prototypes -fomit-frame-pointer -fverbose-asm
  28              	@ options enabled:  -faggressive-loop-optimizations -fauto-inc-dec
  29              	@ -fbranch-count-reg -fcaller-saves -fcombine-stack-adjustments -fcommon
  30              	@ -fcompare-elim -fcprop-registers -fcrossjumping -fcse-follow-jumps
  31              	@ -fdefer-pop -fdelete-null-pointer-checks -fdevirtualize -fdwarf2-cfi-asm
  32              	@ -fearly-inlining -feliminate-unused-debug-types -fexpensive-optimizations
  33              	@ -fforward-propagate -ffunction-cse -fgcse -fgcse-lm -fgnu-runtime
  34              	@ -fgnu-unique -fguess-branch-probability -fhoist-adjacent-loads -fident
  35              	@ -fif-conversion -fif-conversion2 -findirect-inlining -finline
  36              	@ -finline-atomics -finline-functions -finline-functions-called-once
  37              	@ -finline-small-functions -fipa-cp -fipa-profile -fipa-pure-const
  38              	@ -fipa-reference -fipa-sra -fira-hoist-pressure -fira-share-save-slots
  39              	@ -fira-share-spill-slots -fivopts -fkeep-static-consts
  40              	@ -fleading-underscore -fmath-errno -fmerge-constants -fmerge-debug-strings
  41              	@ -fomit-frame-pointer -foptimize-register-move -foptimize-sibling-calls
  42              	@ -fpartial-inlining -fpeephole -fpeephole2 -fprefetch-loop-arrays
  43              	@ -freg-struct-return -fregmove -freorder-blocks -freorder-functions
  44              	@ -frerun-cse-after-loop -fsched-critical-path-heuristic
  45              	@ -fsched-dep-count-heuristic -fsched-group-heuristic -fsched-interblock
  46              	@ -fsched-last-insn-heuristic -fsched-pressure -fsched-rank-heuristic
  47              	@ -fsched-spec -fsched-spec-insn-heuristic -fsched-stalled-insns-dep
  48              	@ -fschedule-insns2 -fsection-anchors -fshow-column -fshrink-wrap
  49              	@ -fsigned-zeros -fsplit-ivs-in-unroller -fsplit-wide-types
  50              	@ -fstrict-aliasing -fstrict-overflow -fstrict-volatile-bitfields
  51              	@ -fsync-libcalls -fthread-jumps -ftoplevel-reorder -ftrapping-math
  52              	@ -ftree-bit-ccp -ftree-builtin-call-dce -ftree-ccp -ftree-ch
  53              	@ -ftree-coalesce-vars -ftree-copy-prop -ftree-copyrename -ftree-cselim
  54              	@ -ftree-dce -ftree-dominator-opts -ftree-dse -ftree-forwprop -ftree-fre
  55              	@ -ftree-loop-if-convert -ftree-loop-im -ftree-loop-ivcanon
  56              	@ -ftree-loop-optimize -ftree-parallelize-loops= -ftree-phiprop -ftree-pre
  57              	@ -ftree-pta -ftree-reassoc -ftree-scev-cprop -ftree-sink
ARM GAS  /tmp/ccgxTn0s.s 			page 2


  58              	@ -ftree-slp-vectorize -ftree-slsr -ftree-sra -ftree-switch-conversion
  59              	@ -ftree-tail-merge -ftree-ter -ftree-vect-loop-version -ftree-vrp
  60              	@ -funit-at-a-time -fvar-tracking -fvar-tracking-assignments -fverbose-asm
  61              	@ -fzero-initialized-in-bss -mlittle-endian -mpic-data-is-text-relative
  62              	@ -msched-prolog -mthumb -mvectorize-with-neon-quad
  63              	
  64              		.text
  65              	.Ltext0:
  66              		.cfi_sections	.debug_frame
  67              		.align	1
  68              		.global	delay
  69              		.code	16
  70              		.thumb_func
  71              		.type	delay, %function
  72              	delay:
  73              	.LFB33:
  74              		.file 1 "src/main.c"
   1:src/main.c    **** /**
   2:src/main.c    ****   ******************************************************************************
   3:src/main.c    ****   * @file    IO_Toggle/main.c 
   4:src/main.c    ****   * @author  MCD Application Team
   5:src/main.c    ****   * @version V1.0.0
   6:src/main.c    ****   * @date    23-March-2012
   7:src/main.c    ****   * @brief   Main program body
   8:src/main.c    ****   ******************************************************************************
   9:src/main.c    ****   * @attention
  10:src/main.c    ****   *
  11:src/main.c    ****   * <h2><center>&copy; COPYRIGHT 2012 STMicroelectronics</center></h2>
  12:src/main.c    ****   *
  13:src/main.c    ****   * Licensed under MCD-ST Liberty SW License Agreement V2, (the "License");
  14:src/main.c    ****   * You may not use this file except in compliance with the License.
  15:src/main.c    ****   * You may obtain a copy of the License at:
  16:src/main.c    ****   *
  17:src/main.c    ****   *        http://www.st.com/software_license_agreement_liberty_v2
  18:src/main.c    ****   *
  19:src/main.c    ****   * Unless required by applicable law or agreed to in writing, software 
  20:src/main.c    ****   * distributed under the License is distributed on an "AS IS" BASIS, 
  21:src/main.c    ****   * WITHOUT WARRANTIES OR CONDITIONS OF ANY KIND, either express or implied.
  22:src/main.c    ****   * See the License for the specific language governing permissions and
  23:src/main.c    ****   * limitations under the License.
  24:src/main.c    ****   *
  25:src/main.c    ****   ******************************************************************************
  26:src/main.c    ****   */
  27:src/main.c    **** 
  28:src/main.c    **** /* Includes ------------------------------------------------------------------*/
  29:src/main.c    **** #include "stm32f0xx.h"
  30:src/main.c    **** 
  31:src/main.c    **** /** @addtogroup STM32F0_Discovery_Peripheral_Examples
  32:src/main.c    ****   * @{
  33:src/main.c    ****   */
  34:src/main.c    **** 
  35:src/main.c    **** /** @addtogroup IO_Toggle
  36:src/main.c    ****   * @{
  37:src/main.c    ****   */
  38:src/main.c    **** 
  39:src/main.c    **** /* Private typedef -----------------------------------------------------------*/
  40:src/main.c    **** /* Private define ------------------------------------------------------------*/
ARM GAS  /tmp/ccgxTn0s.s 			page 3


  41:src/main.c    **** #define BSRR_VAL        0x0300
  42:src/main.c    **** 
  43:src/main.c    **** /* Private macro -------------------------------------------------------------*/
  44:src/main.c    **** /* Private variables ---------------------------------------------------------*/
  45:src/main.c    **** GPIO_InitTypeDef        GPIO_InitStructure;
  46:src/main.c    **** 
  47:src/main.c    **** /* Private function prototypes -----------------------------------------------*/
  48:src/main.c    **** /* Private functions ---------------------------------------------------------*/
  49:src/main.c    **** void delay (int a);
  50:src/main.c    **** /**
  51:src/main.c    ****   * @brief  Main program.
  52:src/main.c    ****   * @param  None
  53:src/main.c    ****   * @retval None
  54:src/main.c    ****   */
  55:src/main.c    **** int main(void)
  56:src/main.c    **** {
  57:src/main.c    ****   /*!< At this stage the microcontroller clock setting is already configured, 
  58:src/main.c    ****        this is done through SystemInit() function which is called from startup
  59:src/main.c    ****        file (startup_stm32f0xx.s) before to branch to application main.
  60:src/main.c    ****        To reconfigure the default setting of SystemInit() function, refer to
  61:src/main.c    ****        system_stm32f0xx.c file
  62:src/main.c    ****      */
  63:src/main.c    **** 
  64:src/main.c    ****   /* GPIOC Periph clock enable */
  65:src/main.c    ****   RCC_AHBPeriphClockCmd(RCC_AHBPeriph_GPIOC, ENABLE);
  66:src/main.c    **** 
  67:src/main.c    ****   /* Configure PC8 and PC9 in output pushpull mode */
  68:src/main.c    ****   GPIO_InitStructure.GPIO_Pin = GPIO_Pin_8 | GPIO_Pin_9;
  69:src/main.c    ****   GPIO_InitStructure.GPIO_Mode = GPIO_Mode_OUT;
  70:src/main.c    ****   GPIO_InitStructure.GPIO_OType = GPIO_OType_PP;
  71:src/main.c    ****   GPIO_InitStructure.GPIO_Speed = GPIO_Speed_50MHz;
  72:src/main.c    ****   GPIO_InitStructure.GPIO_PuPd = GPIO_PuPd_NOPULL;
  73:src/main.c    ****   GPIO_Init(GPIOC, &GPIO_InitStructure);
  74:src/main.c    **** 
  75:src/main.c    ****   /* To achieve GPIO toggling maximum frequency, the following  sequence is mandatory. 
  76:src/main.c    ****      You can monitor PC8 and PC9 on the scope to measure the output signal. 
  77:src/main.c    ****      If you need to fine tune this frequency, you can add more GPIO set/reset 
  78:src/main.c    ****      cycles to minimize more the infinite loop timing.
  79:src/main.c    ****      This code needs to be compiled with high speed optimization option.  */
  80:src/main.c    ****   while (1)
  81:src/main.c    ****   {
  82:src/main.c    ****     /* Set PC8 and PC9 */
  83:src/main.c    ****     GPIOC->BSRR = BSRR_VAL;
  84:src/main.c    **** 	delay(500000);
  85:src/main.c    **** 	/* Reset PC8 and PC9 */
  86:src/main.c    ****     GPIOC->BRR = BSRR_VAL;
  87:src/main.c    **** 	delay(500000);
  88:src/main.c    ****    
  89:src/main.c    **** 
  90:src/main.c    ****     
  91:src/main.c    ****   }
  92:src/main.c    **** }
  93:src/main.c    **** 
  94:src/main.c    **** void delay (int a)
  95:src/main.c    **** {
  75              		.loc 1 95 0
  76              		.cfi_startproc
ARM GAS  /tmp/ccgxTn0s.s 			page 4


  77              	.LVL0:
  78 0000 82B0     		sub	sp, sp, #8	@,,
  79              	.LCFI0:
  80              		.cfi_def_cfa_offset 8
  96:src/main.c    **** 	volatile int i,j;
  97:src/main.c    **** 	
  98:src/main.c    **** 	for (i=0 ; i < a ; i++)
  81              		.loc 1 98 0
  82 0002 0023     		mov	r3, #0	@ tmp116,
  83              	.L4:
  84              		.loc 1 98 0 is_stmt 0 discriminator 2
  85 0004 0093     		str	r3, [sp]	@ i.3, i
  86 0006 009B     		ldr	r3, [sp]	@ i.4, i
  87 0008 8342     		cmp	r3, r0	@ i.4, a
  88 000a 05DA     		bge	.L6	@,
  99:src/main.c    **** 	{ 
 100:src/main.c    **** 		j++;
  89              		.loc 1 100 0 is_stmt 1 discriminator 2
  90 000c 019B     		ldr	r3, [sp, #4]	@ j.0, j
  91 000e 0133     		add	r3, r3, #1	@ j.1,
  92 0010 0193     		str	r3, [sp, #4]	@ j.1, j
  98:src/main.c    **** 	for (i=0 ; i < a ; i++)
  93              		.loc 1 98 0 discriminator 2
  94 0012 009B     		ldr	r3, [sp]	@ i.2, i
  95 0014 0133     		add	r3, r3, #1	@ i.3,
  96 0016 F5E7     		b	.L4	@
  97              	.L6:
 101:src/main.c    **** 	}
 102:src/main.c    **** 	
 103:src/main.c    **** 	return;
 104:src/main.c    **** }
  98              		.loc 1 104 0
  99 0018 02B0     		add	sp, sp, #8	@,,
 100              		@ sp needed	@
 101 001a 7047     		bx	lr
 102              		.cfi_endproc
 103              	.LFE33:
 104              		.size	delay, .-delay
 105              		.section	.text.startup,"ax",%progbits
 106              		.align	1
 107              		.global	main
 108              		.code	16
 109              		.thumb_func
 110              		.type	main, %function
 111              	main:
 112              	.LFB32:
  56:src/main.c    **** {
 113              		.loc 1 56 0
 114              		.cfi_startproc
  65:src/main.c    ****   RCC_AHBPeriphClockCmd(RCC_AHBPeriph_GPIOC, ENABLE);
 115              		.loc 1 65 0
 116 0000 8020     		mov	r0, #128	@ tmp136,
  56:src/main.c    **** {
 117              		.loc 1 56 0
 118 0002 38B5     		push	{r3, r4, r5, lr}	@
 119              	.LCFI1:
 120              		.cfi_def_cfa_offset 16
ARM GAS  /tmp/ccgxTn0s.s 			page 5


 121              		.cfi_offset 3, -16
 122              		.cfi_offset 4, -12
 123              		.cfi_offset 5, -8
 124              		.cfi_offset 14, -4
  65:src/main.c    ****   RCC_AHBPeriphClockCmd(RCC_AHBPeriph_GPIOC, ENABLE);
 125              		.loc 1 65 0
 126 0004 0003     		lsl	r0, r0, #12	@, tmp136,
 127 0006 0121     		mov	r1, #1	@,
 128 0008 FFF7FEFF 		bl	RCC_AHBPeriphClockCmd	@
 129              	.LVL1:
  68:src/main.c    ****   GPIO_InitStructure.GPIO_Pin = GPIO_Pin_8 | GPIO_Pin_9;
 130              		.loc 1 68 0
 131 000c 0C49     		ldr	r1, .L9	@ tmp112,
 132 000e C023     		mov	r3, #192	@ tmp137,
 133 0010 9B00     		lsl	r3, r3, #2	@ tmp113, tmp137,
 134 0012 0B60     		str	r3, [r1]	@ tmp113, GPIO_InitStructure.GPIO_Pin
  69:src/main.c    ****   GPIO_InitStructure.GPIO_Mode = GPIO_Mode_OUT;
 135              		.loc 1 69 0
 136 0014 0123     		mov	r3, #1	@ tmp115,
 137 0016 0B71     		strb	r3, [r1, #4]	@ tmp115, GPIO_InitStructure.GPIO_Mode
  71:src/main.c    ****   GPIO_InitStructure.GPIO_Speed = GPIO_Speed_50MHz;
 138              		.loc 1 71 0
 139 0018 0322     		mov	r2, #3	@ tmp121,
  70:src/main.c    ****   GPIO_InitStructure.GPIO_OType = GPIO_OType_PP;
 140              		.loc 1 70 0
 141 001a 0023     		mov	r3, #0	@ tmp118,
  73:src/main.c    ****   GPIO_Init(GPIOC, &GPIO_InitStructure);
 142              		.loc 1 73 0
 143 001c 0948     		ldr	r0, .L9+4	@,
  70:src/main.c    ****   GPIO_InitStructure.GPIO_OType = GPIO_OType_PP;
 144              		.loc 1 70 0
 145 001e 8B71     		strb	r3, [r1, #6]	@ tmp118, GPIO_InitStructure.GPIO_OType
  71:src/main.c    ****   GPIO_InitStructure.GPIO_Speed = GPIO_Speed_50MHz;
 146              		.loc 1 71 0
 147 0020 4A71     		strb	r2, [r1, #5]	@ tmp121, GPIO_InitStructure.GPIO_Speed
  72:src/main.c    ****   GPIO_InitStructure.GPIO_PuPd = GPIO_PuPd_NOPULL;
 148              		.loc 1 72 0
 149 0022 CB71     		strb	r3, [r1, #7]	@ tmp118, GPIO_InitStructure.GPIO_PuPd
  73:src/main.c    ****   GPIO_Init(GPIOC, &GPIO_InitStructure);
 150              		.loc 1 73 0
 151 0024 FFF7FEFF 		bl	GPIO_Init	@
 152              	.LVL2:
 153              	.L8:
  83:src/main.c    ****     GPIOC->BSRR = BSRR_VAL;
 154              		.loc 1 83 0 discriminator 1
 155 0028 064C     		ldr	r4, .L9+4	@ tmp128,
 156 002a C025     		mov	r5, #192	@ tmp135,
 157 002c AD00     		lsl	r5, r5, #2	@ tmp129, tmp135,
 158 002e A561     		str	r5, [r4, #24]	@ tmp129, MEM[(struct GPIO_TypeDef *)1207961600B].BSRR
  84:src/main.c    **** 	delay(500000);
 159              		.loc 1 84 0 discriminator 1
 160 0030 0548     		ldr	r0, .L9+8	@,
 161 0032 FFF7FEFF 		bl	delay	@
 162              	.LVL3:
  86:src/main.c    ****     GPIOC->BRR = BSRR_VAL;
 163              		.loc 1 86 0 discriminator 1
 164 0036 2585     		strh	r5, [r4, #40]	@ tmp129, MEM[(struct GPIO_TypeDef *)1207961600B].BRR
ARM GAS  /tmp/ccgxTn0s.s 			page 6


  87:src/main.c    **** 	delay(500000);
 165              		.loc 1 87 0 discriminator 1
 166 0038 0348     		ldr	r0, .L9+8	@,
 167 003a FFF7FEFF 		bl	delay	@
 168              	.LVL4:
 169 003e F3E7     		b	.L8	@
 170              	.L10:
 171              		.align	2
 172              	.L9:
 173 0040 00000000 		.word	GPIO_InitStructure
 174 0044 00080048 		.word	1207961600
 175 0048 20A10700 		.word	500000
 176              		.cfi_endproc
 177              	.LFE32:
 178              		.size	main, .-main
 179              		.comm	GPIO_InitStructure,8,4
 180              		.text
 181              	.Letext0:
 182              		.file 2 "/usr/arm-none-eabi/include/machine/_default_types.h"
 183              		.file 3 "/usr/arm-none-eabi/include/stdint.h"
 184              		.file 4 "../../STM32F0-Discovery_FW_V1.0.0/Libraries/CMSIS/ST/STM32F0xx/Include/stm32f0xx.h"
 185              		.file 5 "../../STM32F0-Discovery_FW_V1.0.0/Libraries/STM32F0xx_StdPeriph_Driver/inc/stm32f0xx_gpio
 186              		.file 6 "../../STM32F0-Discovery_FW_V1.0.0/Libraries/STM32F0xx_StdPeriph_Driver/inc/stm32f0xx_rcc.